; Function Attrs: mustprogress uwtable
define internal void @_ZN19OpenColorIO_v2_5dev12_GLOBAL__N_122DefaultLoggingFunctionEPKc(ptr noundef %0) #3 {
  %.not.i = icmp eq ptr %0, null
  br i1 %.not.i, label %2, label %10

2:                                                ; preds = %1
  %3 = load ptr, ptr @_ZSt4cerr, align 8, !tbaa !3
  %4 = getelementptr i8, ptr %3, i64 -24
  %5 = load i64, ptr %4, align 8
  %6 = getelementptr inbounds i8, ptr @_ZSt4cerr, i64 %5
  %7 = getelementptr inbounds nuw i8, ptr %6, i64 32
  %8 = load i32, ptr %7, align 8, !tbaa !6
  %9 = or i32 %8, 1
  tail call void @_ZNSt9basic_iosIcSt11char_traitsIcEE5clearESt12_Ios_Iostate(ptr noundef nonnull align 8 dereferenceable(264) %6, i32 noundef %9)
  br label %_ZStlsISt11char_traitsIcEERSt13basic_ostreamIcT_ES5_PKc.exit

10:                                               ; preds = %1
  %11 = tail call noundef i64 @strlen(ptr noundef nonnull dereferenceable(1) %0) #20
  %12 = tail call noundef nonnull align 8 dereferenceable(8) ptr @_ZSt16__ostream_insertIcSt11char_traitsIcEERSt13basic_ostreamIT_T0_ES6_PKS3_l(ptr noundef nonnull align 8 dereferenceable(8) @_ZSt4cerr, ptr noundef nonnull %0, i64 noundef %11)
  br label %_ZStlsISt11char_traitsIcEERSt13basic_ostreamIcT_ES5_PKc.exit

_ZStlsISt11char_traitsIcEERSt13basic_ostreamIcT_ES5_PKc.exit: ; preds = %2, %10
  ret void
}